; Function Attrs: mustprogress nofree norecurse nosync nounwind willreturn memory(argmem: read) uwtable
define noundef range(i32 0, 367) i32 @_ZNK6icu_7714IndianCalendar19handleGetYearLengthEiR10UErrorCode(ptr nonnull readnone align 8 captures(none) %0, i32 noundef %1, ptr noundef nonnull readonly align 4 captures(none) dereferenceable(4) %2) unnamed_addr #5 align 2 {
  %4 = load i32, ptr %2, align 4, !tbaa !9
  %5 = icmp slt i32 %4, 1
  br i1 %5, label %6, label %_ZN6icu_77L15isGregorianLeapEi.exit.thread5

6:                                                ; preds = %3
  %7 = add i32 %1, 78
  %8 = and i32 %7, 3
  %9 = icmp eq i32 %8, 0
  br i1 %9, label %10, label %_ZN6icu_77L15isGregorianLeapEi.exit.thread

10:                                               ; preds = %6
  %11 = srem i32 %7, 100
  %.not.i.i = icmp ne i32 %11, 0
  %12 = srem i32 %7, 400
  %.not = icmp eq i32 %12, 0
  %or.cond = or i1 %.not.i.i, %.not
  br i1 %or.cond, label %_ZN6icu_77L15isGregorianLeapEi.exit.thread5, label %_ZN6icu_77L15isGregorianLeapEi.exit.thread

_ZN6icu_77L15isGregorianLeapEi.exit.thread:       ; preds = %10, %6
  br label %_ZN6icu_77L15isGregorianLeapEi.exit.thread5

_ZN6icu_77L15isGregorianLeapEi.exit.thread5:      ; preds = %10, %_ZN6icu_77L15isGregorianLeapEi.exit.thread, %3
  %.0 = phi i32 [ 0, %3 ], [ 365, %_ZN6icu_77L15isGregorianLeapEi.exit.thread ], [ 366, %10 ]
  ret i32 %.0
}